target datalayout = "e-m:e-p270:32:32-p271:32:32-p272:64:64-i64:64-i128:128-f80:128-n8:16:32:64-S128"
target triple = "x86_64-pc-linux-gnu"

%struct.AVComplexFloat = type { float, float }
%struct.AVTXContext = type { i32, i32, ptr, ptr, ptr, ptr, [4 x ptr], i32, [4 x ptr], ptr, i32, i64, i32, float, double, ptr }

; Function Attrs: nounwind uwtable
define internal void @ff_tx_rdft_c2r_float_c(ptr noundef %0, ptr noundef %1, ptr noundef %2, i64 noundef %3) #4 {
  %5 = alloca ptr, align 8
  %6 = alloca ptr, align 8
  %7 = alloca ptr, align 8
  %8 = alloca i64, align 8
  %9 = alloca i32, align 4
  %10 = alloca i32, align 4
  %11 = alloca ptr, align 8
  %12 = alloca ptr, align 8
  %13 = alloca ptr, align 8
  %14 = alloca ptr, align 8
  %15 = alloca [3 x %struct.AVComplexFloat], align 16
  %16 = alloca i32, align 4
  store ptr %0, ptr %5, align 8, !tbaa !17
  store ptr %1, ptr %6, align 8, !tbaa !8
  store ptr %2, ptr %7, align 8, !tbaa !8
  store i64 %3, ptr %8, align 8, !tbaa !30
  call void @llvm.lifetime.start.p0(i64 4, ptr %9) #10
  %17 = load ptr, ptr %5, align 8, !tbaa !17
  %18 = getelementptr inbounds nuw %struct.AVTXContext, ptr %17, i32 0, i32 0
  %19 = load i32, ptr %18, align 8, !tbaa !21
  %20 = ashr i32 %19, 1
  store i32 %20, ptr %9, align 4, !tbaa !4
  call void @llvm.lifetime.start.p0(i64 4, ptr %10) #10
  %21 = load ptr, ptr %5, align 8, !tbaa !17
  %22 = getelementptr inbounds nuw %struct.AVTXContext, ptr %21, i32 0, i32 0
  %23 = load i32, ptr %22, align 8, !tbaa !21
  %24 = ashr i32 %23, 2
  store i32 %24, ptr %10, align 4, !tbaa !4
  call void @llvm.lifetime.start.p0(i64 8, ptr %11) #10
  %25 = load ptr, ptr %5, align 8, !tbaa !17
  %26 = getelementptr inbounds nuw %struct.AVTXContext, ptr %25, i32 0, i32 3
  %27 = load ptr, ptr %26, align 8, !tbaa !31
  store ptr %27, ptr %11, align 8, !tbaa !39
  call void @llvm.lifetime.start.p0(i64 8, ptr %12) #10
  %28 = load ptr, ptr %11, align 8, !tbaa !39
  %29 = getelementptr inbounds float, ptr %28, i64 8
  store ptr %29, ptr %12, align 8, !tbaa !39
  call void @llvm.lifetime.start.p0(i64 8, ptr %13) #10
  %30 = load ptr, ptr %12, align 8, !tbaa !39
  %31 = load i32, ptr %10, align 4, !tbaa !4
  %32 = sext i32 %31 to i64
  %33 = getelementptr inbounds float, ptr %30, i64 %32
  store ptr %33, ptr %13, align 8, !tbaa !39
  call void @llvm.lifetime.start.p0(i64 8, ptr %14) #10
  %34 = load ptr, ptr %7, align 8, !tbaa !8
  store ptr %34, ptr %14, align 8, !tbaa !60
  call void @llvm.lifetime.start.p0(i64 24, ptr %15) #10
  %35 = load ptr, ptr %14, align 8, !tbaa !60
  %36 = load i32, ptr %9, align 4, !tbaa !4
  %37 = sext i32 %36 to i64
  %38 = getelementptr inbounds %struct.AVComplexFloat, ptr %35, i64 %37
  %39 = getelementptr inbounds nuw %struct.AVComplexFloat, ptr %38, i32 0, i32 0
  %40 = load float, ptr %39, align 4, !tbaa !32
  %41 = load ptr, ptr %14, align 8, !tbaa !60
  %42 = getelementptr inbounds %struct.AVComplexFloat, ptr %41, i64 0
  %43 = getelementptr inbounds nuw %struct.AVComplexFloat, ptr %42, i32 0, i32 1
  store float %40, ptr %43, align 4, !tbaa !34
  %44 = load ptr, ptr %14, align 8, !tbaa !60
  %45 = getelementptr inbounds %struct.AVComplexFloat, ptr %44, i64 0
  %46 = getelementptr inbounds nuw %struct.AVComplexFloat, ptr %45, i32 0, i32 0
  %47 = load float, ptr %46, align 4, !tbaa !32
  %48 = getelementptr inbounds [3 x %struct.AVComplexFloat], ptr %15, i64 0, i64 0
  %49 = getelementptr inbounds nuw %struct.AVComplexFloat, ptr %48, i32 0, i32 0
  store float %47, ptr %49, align 16, !tbaa !32
  %50 = getelementptr inbounds [3 x %struct.AVComplexFloat], ptr %15, i64 0, i64 0
  %51 = getelementptr inbounds nuw %struct.AVComplexFloat, ptr %50, i32 0, i32 0
  %52 = load float, ptr %51, align 16, !tbaa !32
  %53 = load ptr, ptr %14, align 8, !tbaa !60
  %54 = getelementptr inbounds %struct.AVComplexFloat, ptr %53, i64 0
  %55 = getelementptr inbounds nuw %struct.AVComplexFloat, ptr %54, i32 0, i32 1
  %56 = load float, ptr %55, align 4, !tbaa !34
  %57 = fadd nsz float %52, %56
  %58 = load ptr, ptr %14, align 8, !tbaa !60
  %59 = getelementptr inbounds %struct.AVComplexFloat, ptr %58, i64 0
  %60 = getelementptr inbounds nuw %struct.AVComplexFloat, ptr %59, i32 0, i32 0
  store float %57, ptr %60, align 4, !tbaa !32
  %61 = getelementptr inbounds [3 x %struct.AVComplexFloat], ptr %15, i64 0, i64 0
  %62 = getelementptr inbounds nuw %struct.AVComplexFloat, ptr %61, i32 0, i32 0
  %63 = load float, ptr %62, align 16, !tbaa !32
  %64 = load ptr, ptr %14, align 8, !tbaa !60
  %65 = getelementptr inbounds %struct.AVComplexFloat, ptr %64, i64 0
  %66 = getelementptr inbounds nuw %struct.AVComplexFloat, ptr %65, i32 0, i32 1
  %67 = load float, ptr %66, align 4, !tbaa !34
  %68 = fsub nsz float %63, %67
  %69 = load ptr, ptr %14, align 8, !tbaa !60
  %70 = getelementptr inbounds %struct.AVComplexFloat, ptr %69, i64 0
  %71 = getelementptr inbounds nuw %struct.AVComplexFloat, ptr %70, i32 0, i32 1
  store float %68, ptr %71, align 4, !tbaa !34
  %72 = load ptr, ptr %11, align 8, !tbaa !39
  %73 = getelementptr inbounds float, ptr %72, i64 0
  %74 = load float, ptr %73, align 4, !tbaa !36
  %75 = load ptr, ptr %14, align 8, !tbaa !60
  %76 = getelementptr inbounds %struct.AVComplexFloat, ptr %75, i64 0
  %77 = getelementptr inbounds nuw %struct.AVComplexFloat, ptr %76, i32 0, i32 0
  %78 = load float, ptr %77, align 4, !tbaa !32
  %79 = fmul nsz float %74, %78
  %80 = load ptr, ptr %14, align 8, !tbaa !60
  %81 = getelementptr inbounds %struct.AVComplexFloat, ptr %80, i64 0
  %82 = getelementptr inbounds nuw %struct.AVComplexFloat, ptr %81, i32 0, i32 0
  store float %79, ptr %82, align 4, !tbaa !32
  %83 = load ptr, ptr %11, align 8, !tbaa !39
  %84 = getelementptr inbounds float, ptr %83, i64 1
  %85 = load float, ptr %84, align 4, !tbaa !36
  %86 = load ptr, ptr %14, align 8, !tbaa !60
  %87 = getelementptr inbounds %struct.AVComplexFloat, ptr %86, i64 0
  %88 = getelementptr inbounds nuw %struct.AVComplexFloat, ptr %87, i32 0, i32 1
  %89 = load float, ptr %88, align 4, !tbaa !34
  %90 = fmul nsz float %85, %89
  %91 = load ptr, ptr %14, align 8, !tbaa !60
  %92 = getelementptr inbounds %struct.AVComplexFloat, ptr %91, i64 0
  %93 = getelementptr inbounds nuw %struct.AVComplexFloat, ptr %92, i32 0, i32 1
  store float %90, ptr %93, align 4, !tbaa !34
  %94 = load ptr, ptr %11, align 8, !tbaa !39
  %95 = getelementptr inbounds float, ptr %94, i64 2
  %96 = load float, ptr %95, align 4, !tbaa !36
  %97 = load ptr, ptr %14, align 8, !tbaa !60
  %98 = load i32, ptr %10, align 4, !tbaa !4
  %99 = sext i32 %98 to i64
  %100 = getelementptr inbounds %struct.AVComplexFloat, ptr %97, i64 %99
  %101 = getelementptr inbounds nuw %struct.AVComplexFloat, ptr %100, i32 0, i32 0
  %102 = load float, ptr %101, align 4, !tbaa !32
  %103 = fmul nsz float %96, %102
  %104 = load ptr, ptr %14, align 8, !tbaa !60
  %105 = load i32, ptr %10, align 4, !tbaa !4
  %106 = sext i32 %105 to i64
  %107 = getelementptr inbounds %struct.AVComplexFloat, ptr %104, i64 %106
  %108 = getelementptr inbounds nuw %struct.AVComplexFloat, ptr %107, i32 0, i32 0
  store float %103, ptr %108, align 4, !tbaa !32
  %109 = load ptr, ptr %11, align 8, !tbaa !39
  %110 = getelementptr inbounds float, ptr %109, i64 3
  %111 = load float, ptr %110, align 4, !tbaa !36
  %112 = load ptr, ptr %14, align 8, !tbaa !60
  %113 = load i32, ptr %10, align 4, !tbaa !4
  %114 = sext i32 %113 to i64
  %115 = getelementptr inbounds %struct.AVComplexFloat, ptr %112, i64 %114
  %116 = getelementptr inbounds nuw %struct.AVComplexFloat, ptr %115, i32 0, i32 1
  %117 = load float, ptr %116, align 4, !tbaa !34
  %118 = fmul nsz float %111, %117
  %119 = load ptr, ptr %14, align 8, !tbaa !60
  %120 = load i32, ptr %10, align 4, !tbaa !4
  %121 = sext i32 %120 to i64
  %122 = getelementptr inbounds %struct.AVComplexFloat, ptr %119, i64 %121
  %123 = getelementptr inbounds nuw %struct.AVComplexFloat, ptr %122, i32 0, i32 1
  store float %118, ptr %123, align 4, !tbaa !34
  call void @llvm.lifetime.start.p0(i64 4, ptr %16) #10
  store i32 1, ptr %16, align 4, !tbaa !4
  br label %124

124:                                              ; preds = %310, %4
  %125 = load i32, ptr %16, align 4, !tbaa !4
  %126 = load i32, ptr %10, align 4, !tbaa !4
  %127 = icmp slt i32 %125, %126
  br i1 %127, label %129, label %128

128:                                              ; preds = %124
  call void @llvm.lifetime.end.p0(i64 4, ptr %16) #10
  br label %313

129:                                              ; preds = %124
  %130 = load ptr, ptr %11, align 8, !tbaa !39
  %131 = getelementptr inbounds float, ptr %130, i64 4
  %132 = load float, ptr %131, align 4, !tbaa !36
  %133 = load ptr, ptr %14, align 8, !tbaa !60
  %134 = load i32, ptr %16, align 4, !tbaa !4
  %135 = sext i32 %134 to i64
  %136 = getelementptr inbounds %struct.AVComplexFloat, ptr %133, i64 %135
  %137 = getelementptr inbounds nuw %struct.AVComplexFloat, ptr %136, i32 0, i32 0
  %138 = load float, ptr %137, align 4, !tbaa !32
  %139 = load ptr, ptr %14, align 8, !tbaa !60
  %140 = load i32, ptr %9, align 4, !tbaa !4
  %141 = load i32, ptr %16, align 4, !tbaa !4
  %142 = sub nsw i32 %140, %141
  %143 = sext i32 %142 to i64
  %144 = getelementptr inbounds %struct.AVComplexFloat, ptr %139, i64 %143
  %145 = getelementptr inbounds nuw %struct.AVComplexFloat, ptr %144, i32 0, i32 0
  %146 = load float, ptr %145, align 4, !tbaa !32
  %147 = fadd nsz float %138, %146
  %148 = fmul nsz float %132, %147
  %149 = getelementptr inbounds [3 x %struct.AVComplexFloat], ptr %15, i64 0, i64 0
  %150 = getelementptr inbounds nuw %struct.AVComplexFloat, ptr %149, i32 0, i32 0
  store float %148, ptr %150, align 16, !tbaa !32
  %151 = load ptr, ptr %11, align 8, !tbaa !39
  %152 = getelementptr inbounds float, ptr %151, i64 5
  %153 = load float, ptr %152, align 4, !tbaa !36
  %154 = load ptr, ptr %14, align 8, !tbaa !60
  %155 = load i32, ptr %16, align 4, !tbaa !4
  %156 = sext i32 %155 to i64
  %157 = getelementptr inbounds %struct.AVComplexFloat, ptr %154, i64 %156
  %158 = getelementptr inbounds nuw %struct.AVComplexFloat, ptr %157, i32 0, i32 1
  %159 = load float, ptr %158, align 4, !tbaa !34
  %160 = load ptr, ptr %14, align 8, !tbaa !60
  %161 = load i32, ptr %9, align 4, !tbaa !4
  %162 = load i32, ptr %16, align 4, !tbaa !4
  %163 = sub nsw i32 %161, %162
  %164 = sext i32 %163 to i64
  %165 = getelementptr inbounds %struct.AVComplexFloat, ptr %160, i64 %164
  %166 = getelementptr inbounds nuw %struct.AVComplexFloat, ptr %165, i32 0, i32 1
  %167 = load float, ptr %166, align 4, !tbaa !34
  %168 = fsub nsz float %159, %167
  %169 = fmul nsz float %153, %168
  %170 = getelementptr inbounds [3 x %struct.AVComplexFloat], ptr %15, i64 0, i64 0
  %171 = getelementptr inbounds nuw %struct.AVComplexFloat, ptr %170, i32 0, i32 1
  store float %169, ptr %171, align 4, !tbaa !34
  %172 = load ptr, ptr %11, align 8, !tbaa !39
  %173 = getelementptr inbounds float, ptr %172, i64 6
  %174 = load float, ptr %173, align 4, !tbaa !36
  %175 = load ptr, ptr %14, align 8, !tbaa !60
  %176 = load i32, ptr %16, align 4, !tbaa !4
  %177 = sext i32 %176 to i64
  %178 = getelementptr inbounds %struct.AVComplexFloat, ptr %175, i64 %177
  %179 = getelementptr inbounds nuw %struct.AVComplexFloat, ptr %178, i32 0, i32 1
  %180 = load float, ptr %179, align 4, !tbaa !34
  %181 = load ptr, ptr %14, align 8, !tbaa !60
  %182 = load i32, ptr %9, align 4, !tbaa !4
  %183 = load i32, ptr %16, align 4, !tbaa !4
  %184 = sub nsw i32 %182, %183
  %185 = sext i32 %184 to i64
  %186 = getelementptr inbounds %struct.AVComplexFloat, ptr %181, i64 %185
  %187 = getelementptr inbounds nuw %struct.AVComplexFloat, ptr %186, i32 0, i32 1
  %188 = load float, ptr %187, align 4, !tbaa !34
  %189 = fadd nsz float %180, %188
  %190 = fmul nsz float %174, %189
  %191 = getelementptr inbounds [3 x %struct.AVComplexFloat], ptr %15, i64 0, i64 1
  %192 = getelementptr inbounds nuw %struct.AVComplexFloat, ptr %191, i32 0, i32 0
  store float %190, ptr %192, align 8, !tbaa !32
  %193 = load ptr, ptr %11, align 8, !tbaa !39
  %194 = getelementptr inbounds float, ptr %193, i64 7
  %195 = load float, ptr %194, align 4, !tbaa !36
  %196 = load ptr, ptr %14, align 8, !tbaa !60
  %197 = load i32, ptr %16, align 4, !tbaa !4
  %198 = sext i32 %197 to i64
  %199 = getelementptr inbounds %struct.AVComplexFloat, ptr %196, i64 %198
  %200 = getelementptr inbounds nuw %struct.AVComplexFloat, ptr %199, i32 0, i32 0
  %201 = load float, ptr %200, align 4, !tbaa !32
  %202 = load ptr, ptr %14, align 8, !tbaa !60
  %203 = load i32, ptr %9, align 4, !tbaa !4
  %204 = load i32, ptr %16, align 4, !tbaa !4
  %205 = sub nsw i32 %203, %204
  %206 = sext i32 %205 to i64
  %207 = getelementptr inbounds %struct.AVComplexFloat, ptr %202, i64 %206
  %208 = getelementptr inbounds nuw %struct.AVComplexFloat, ptr %207, i32 0, i32 0
  %209 = load float, ptr %208, align 4, !tbaa !32
  %210 = fsub nsz float %201, %209
  %211 = fmul nsz float %195, %210
  %212 = getelementptr inbounds [3 x %struct.AVComplexFloat], ptr %15, i64 0, i64 1
  %213 = getelementptr inbounds nuw %struct.AVComplexFloat, ptr %212, i32 0, i32 1
  store float %211, ptr %213, align 4, !tbaa !34
  br label %214

214:                                              ; preds = %129
  %215 = getelementptr inbounds [3 x %struct.AVComplexFloat], ptr %15, i64 0, i64 1
  %216 = getelementptr inbounds nuw %struct.AVComplexFloat, ptr %215, i32 0, i32 0
  %217 = load float, ptr %216, align 8, !tbaa !32
  %218 = load ptr, ptr %12, align 8, !tbaa !39
  %219 = load i32, ptr %16, align 4, !tbaa !4
  %220 = sext i32 %219 to i64
  %221 = getelementptr inbounds float, ptr %218, i64 %220
  %222 = load float, ptr %221, align 4, !tbaa !36
  %223 = getelementptr inbounds [3 x %struct.AVComplexFloat], ptr %15, i64 0, i64 1
  %224 = getelementptr inbounds nuw %struct.AVComplexFloat, ptr %223, i32 0, i32 1
  %225 = load float, ptr %224, align 4, !tbaa !34
  %226 = load ptr, ptr %13, align 8, !tbaa !39
  %227 = load i32, ptr %16, align 4, !tbaa !4
  %228 = sext i32 %227 to i64
  %229 = getelementptr inbounds float, ptr %226, i64 %228
  %230 = load float, ptr %229, align 4, !tbaa !36
  %231 = fmul nsz float %225, %230
  %232 = fneg nsz float %231
  %233 = call nsz float @llvm.fmuladd.f32(float %217, float %222, float %232)
  %234 = getelementptr inbounds [3 x %struct.AVComplexFloat], ptr %15, i64 0, i64 2
  %235 = getelementptr inbounds nuw %struct.AVComplexFloat, ptr %234, i32 0, i32 0
  store float %233, ptr %235, align 16, !tbaa !32
  %236 = getelementptr inbounds [3 x %struct.AVComplexFloat], ptr %15, i64 0, i64 1
  %237 = getelementptr inbounds nuw %struct.AVComplexFloat, ptr %236, i32 0, i32 0
  %238 = load float, ptr %237, align 8, !tbaa !32
  %239 = load ptr, ptr %13, align 8, !tbaa !39
  %240 = load i32, ptr %16, align 4, !tbaa !4
  %241 = sext i32 %240 to i64
  %242 = getelementptr inbounds float, ptr %239, i64 %241
  %243 = load float, ptr %242, align 4, !tbaa !36
  %244 = getelementptr inbounds [3 x %struct.AVComplexFloat], ptr %15, i64 0, i64 1
  %245 = getelementptr inbounds nuw %struct.AVComplexFloat, ptr %244, i32 0, i32 1
  %246 = load float, ptr %245, align 4, !tbaa !34
  %247 = load ptr, ptr %12, align 8, !tbaa !39
  %248 = load i32, ptr %16, align 4, !tbaa !4
  %249 = sext i32 %248 to i64
  %250 = getelementptr inbounds float, ptr %247, i64 %249
  %251 = load float, ptr %250, align 4, !tbaa !36
  %252 = fmul nsz float %246, %251
  %253 = call nsz float @llvm.fmuladd.f32(float %238, float %243, float %252)
  %254 = getelementptr inbounds [3 x %struct.AVComplexFloat], ptr %15, i64 0, i64 2
  %255 = getelementptr inbounds nuw %struct.AVComplexFloat, ptr %254, i32 0, i32 1
  store float %253, ptr %255, align 4, !tbaa !34
  br label %256

256:                                              ; preds = %214
  br label %257

257:                                              ; preds = %256
  %258 = getelementptr inbounds [3 x %struct.AVComplexFloat], ptr %15, i64 0, i64 0
  %259 = getelementptr inbounds nuw %struct.AVComplexFloat, ptr %258, i32 0, i32 0
  %260 = load float, ptr %259, align 16, !tbaa !32
  %261 = getelementptr inbounds [3 x %struct.AVComplexFloat], ptr %15, i64 0, i64 2
  %262 = getelementptr inbounds nuw %struct.AVComplexFloat, ptr %261, i32 0, i32 0
  %263 = load float, ptr %262, align 16, !tbaa !32
  %264 = fadd nsz float %260, %263
  %265 = load ptr, ptr %14, align 8, !tbaa !60
  %266 = load i32, ptr %16, align 4, !tbaa !4
  %267 = sext i32 %266 to i64
  %268 = getelementptr inbounds %struct.AVComplexFloat, ptr %265, i64 %267
  %269 = getelementptr inbounds nuw %struct.AVComplexFloat, ptr %268, i32 0, i32 0
  store float %264, ptr %269, align 4, !tbaa !32
  %270 = getelementptr inbounds [3 x %struct.AVComplexFloat], ptr %15, i64 0, i64 2
  %271 = getelementptr inbounds nuw %struct.AVComplexFloat, ptr %270, i32 0, i32 1
  %272 = load float, ptr %271, align 4, !tbaa !34
  %273 = getelementptr inbounds [3 x %struct.AVComplexFloat], ptr %15, i64 0, i64 0
  %274 = getelementptr inbounds nuw %struct.AVComplexFloat, ptr %273, i32 0, i32 1
  %275 = load float, ptr %274, align 4, !tbaa !34
  %276 = fsub nsz float %272, %275
  %277 = load ptr, ptr %14, align 8, !tbaa !60
  %278 = load i32, ptr %16, align 4, !tbaa !4
  %279 = sext i32 %278 to i64
  %280 = getelementptr inbounds %struct.AVComplexFloat, ptr %277, i64 %279
  %281 = getelementptr inbounds nuw %struct.AVComplexFloat, ptr %280, i32 0, i32 1
  store float %276, ptr %281, align 4, !tbaa !34
  %282 = getelementptr inbounds [3 x %struct.AVComplexFloat], ptr %15, i64 0, i64 0
  %283 = getelementptr inbounds nuw %struct.AVComplexFloat, ptr %282, i32 0, i32 0
  %284 = load float, ptr %283, align 16, !tbaa !32
  %285 = getelementptr inbounds [3 x %struct.AVComplexFloat], ptr %15, i64 0, i64 2
  %286 = getelementptr inbounds nuw %struct.AVComplexFloat, ptr %285, i32 0, i32 0
  %287 = load float, ptr %286, align 16, !tbaa !32
  %288 = fsub nsz float %284, %287
  %289 = load ptr, ptr %14, align 8, !tbaa !60
  %290 = load i32, ptr %9, align 4, !tbaa !4
  %291 = load i32, ptr %16, align 4, !tbaa !4
  %292 = sub nsw i32 %290, %291
  %293 = sext i32 %292 to i64
  %294 = getelementptr inbounds %struct.AVComplexFloat, ptr %289, i64 %293
  %295 = getelementptr inbounds nuw %struct.AVComplexFloat, ptr %294, i32 0, i32 0
  store float %288, ptr %295, align 4, !tbaa !32
  %296 = getelementptr inbounds [3 x %struct.AVComplexFloat], ptr %15, i64 0, i64 2
  %297 = getelementptr inbounds nuw %struct.AVComplexFloat, ptr %296, i32 0, i32 1
  %298 = load float, ptr %297, align 4, !tbaa !34
  %299 = getelementptr inbounds [3 x %struct.AVComplexFloat], ptr %15, i64 0, i64 0
  %300 = getelementptr inbounds nuw %struct.AVComplexFloat, ptr %299, i32 0, i32 1
  %301 = load float, ptr %300, align 4, !tbaa !34
  %302 = fadd nsz float %298, %301
  %303 = load ptr, ptr %14, align 8, !tbaa !60
  %304 = load i32, ptr %9, align 4, !tbaa !4
  %305 = load i32, ptr %16, align 4, !tbaa !4
  %306 = sub nsw i32 %304, %305
  %307 = sext i32 %306 to i64
  %308 = getelementptr inbounds %struct.AVComplexFloat, ptr %303, i64 %307
  %309 = getelementptr inbounds nuw %struct.AVComplexFloat, ptr %308, i32 0, i32 1
  store float %302, ptr %309, align 4, !tbaa !34
  br label %310

310:                                              ; preds = %257
  %311 = load i32, ptr %16, align 4, !tbaa !4
  %312 = add nsw i32 %311, 1
  store i32 %312, ptr %16, align 4, !tbaa !4
  br label %124, !llvm.loop !159

313:                                              ; preds = %128
  %314 = load ptr, ptr %5, align 8, !tbaa !17
  %315 = getelementptr inbounds nuw %struct.AVTXContext, ptr %314, i32 0, i32 6
  %316 = getelementptr inbounds [4 x ptr], ptr %315, i64 0, i64 0
  %317 = load ptr, ptr %316, align 8, !tbaa !8
  %318 = load ptr, ptr %5, align 8, !tbaa !17
  %319 = getelementptr inbounds nuw %struct.AVTXContext, ptr %318, i32 0, i32 5
  %320 = load ptr, ptr %319, align 8, !tbaa !68
  %321 = getelementptr inbounds %struct.AVTXContext, ptr %320, i64 0
  %322 = load ptr, ptr %6, align 8, !tbaa !8
  %323 = load ptr, ptr %14, align 8, !tbaa !60
  call void %317(ptr noundef %321, ptr noundef %322, ptr noundef %323, i64 noundef 8)
  call void @llvm.lifetime.end.p0(i64 24, ptr %15) #10
  call void @llvm.lifetime.end.p0(i64 8, ptr %14) #10
  call void @llvm.lifetime.end.p0(i64 8, ptr %13) #10
  call void @llvm.lifetime.end.p0(i64 8, ptr %12) #10
  call void @llvm.lifetime.end.p0(i64 8, ptr %11) #10
  call void @llvm.lifetime.end.p0(i64 4, ptr %10) #10
  call void @llvm.lifetime.end.p0(i64 4, ptr %9) #10
  ret void
}