; Function Attrs: nounwind uwtable
define internal void @ff_tx_rdft_c2r_float_c(ptr noundef readonly captures(none) %0, ptr noundef %1, ptr noundef %2, i64 %3) #3 {
  %5 = load i32, ptr %0, align 8, !tbaa !16
  %6 = ashr i32 %5, 1
  %7 = ashr i32 %5, 2
  %8 = getelementptr inbounds nuw i8, ptr %0, i64 16
  %9 = load ptr, ptr %8, align 8, !tbaa !26
  %10 = getelementptr inbounds nuw i8, ptr %9, i64 32
  %11 = sext i32 %7 to i64
  %12 = getelementptr inbounds float, ptr %10, i64 %11
  %13 = sext i32 %6 to i64
  %14 = getelementptr inbounds %struct.AVComplexFloat, ptr %2, i64 %13
  %15 = load float, ptr %14, align 4, !tbaa !49
  %16 = getelementptr inbounds nuw i8, ptr %2, i64 4
  %17 = load float, ptr %2, align 4, !tbaa !49
  %18 = fadd nsz float %15, %17
  store float %18, ptr %2, align 4, !tbaa !49
  %19 = fsub nsz float %17, %15
  store float %19, ptr %16, align 4, !tbaa !51
  %20 = load float, ptr %9, align 4, !tbaa !27
  %21 = fmul nsz float %18, %20
  store float %21, ptr %2, align 4, !tbaa !49
  %22 = getelementptr inbounds nuw i8, ptr %9, i64 4
  %23 = load float, ptr %22, align 4, !tbaa !27
  %24 = fmul nsz float %19, %23
  store float %24, ptr %16, align 4, !tbaa !51
  %25 = getelementptr inbounds nuw i8, ptr %9, i64 8
  %26 = load float, ptr %25, align 4, !tbaa !27
  %27 = getelementptr inbounds %struct.AVComplexFloat, ptr %2, i64 %11
  %28 = load float, ptr %27, align 4, !tbaa !49
  %29 = fmul nsz float %26, %28
  store float %29, ptr %27, align 4, !tbaa !49
  %30 = getelementptr inbounds nuw i8, ptr %9, i64 12
  %31 = load float, ptr %30, align 4, !tbaa !27
  %32 = getelementptr inbounds nuw i8, ptr %27, i64 4
  %33 = load float, ptr %32, align 4, !tbaa !51
  %34 = fmul nsz float %31, %33
  store float %34, ptr %32, align 4, !tbaa !51
  %35 = icmp sgt i32 %7, 1
  br i1 %35, label %.lr.ph, label %._crit_edge

.lr.ph:                                           ; preds = %4
  %36 = getelementptr inbounds nuw i8, ptr %9, i64 16
  %37 = getelementptr inbounds nuw i8, ptr %9, i64 20
  %38 = getelementptr inbounds nuw i8, ptr %9, i64 24
  %39 = getelementptr inbounds nuw i8, ptr %9, i64 28
  %wide.trip.count = zext nneg i32 %7 to i64
  br label %44

._crit_edge:                                      ; preds = %44, %4
  %40 = getelementptr inbounds nuw i8, ptr %0, i64 40
  %41 = load ptr, ptr %40, align 8, !tbaa !4
  %42 = getelementptr inbounds nuw i8, ptr %0, i64 32
  %43 = load ptr, ptr %42, align 8, !tbaa !56
  tail call void %41(ptr noundef %43, ptr noundef %1, ptr noundef nonnull %2, i64 noundef 8) #16
  ret void

44:                                               ; preds = %.lr.ph, %44
  %indvars.iv = phi i64 [ 1, %.lr.ph ], [ %indvars.iv.next, %44 ]
  %45 = load float, ptr %36, align 4, !tbaa !27
  %46 = getelementptr inbounds nuw %struct.AVComplexFloat, ptr %2, i64 %indvars.iv
  %47 = load float, ptr %46, align 4, !tbaa !49
  %48 = sub nsw i64 %13, %indvars.iv
  %49 = getelementptr inbounds %struct.AVComplexFloat, ptr %2, i64 %48
  %50 = load float, ptr %49, align 4, !tbaa !49
  %51 = fadd nsz float %47, %50
  %52 = fmul nsz float %45, %51
  %53 = load float, ptr %37, align 4, !tbaa !27
  %54 = getelementptr inbounds nuw i8, ptr %46, i64 4
  %55 = load float, ptr %54, align 4, !tbaa !51
  %56 = getelementptr inbounds nuw i8, ptr %49, i64 4
  %57 = load float, ptr %56, align 4, !tbaa !51
  %58 = fsub nsz float %55, %57
  %59 = fmul nsz float %53, %58
  %60 = load float, ptr %38, align 4, !tbaa !27
  %61 = fadd nsz float %55, %57
  %62 = fmul nsz float %60, %61
  %63 = load float, ptr %39, align 4, !tbaa !27
  %64 = fsub nsz float %47, %50
  %65 = fmul nsz float %64, %63
  %66 = getelementptr inbounds nuw float, ptr %10, i64 %indvars.iv
  %67 = load float, ptr %66, align 4, !tbaa !27
  %68 = getelementptr inbounds nuw float, ptr %12, i64 %indvars.iv
  %69 = load float, ptr %68, align 4, !tbaa !27
  %70 = fneg nsz float %69
  %71 = fmul nsz float %65, %70
  %72 = tail call nsz float @llvm.fmuladd.f32(float %62, float %67, float %71)
  %73 = fmul nsz float %65, %67
  %74 = tail call nsz float @llvm.fmuladd.f32(float %62, float %69, float %73)
  %75 = fadd nsz float %52, %72
  store float %75, ptr %46, align 4, !tbaa !49
  %76 = fsub nsz float %74, %59
  store float %76, ptr %54, align 4, !tbaa !51
  %77 = fsub nsz float %52, %72
  store float %77, ptr %49, align 4, !tbaa !49
  %78 = fadd nsz float %59, %74
  store float %78, ptr %56, align 4, !tbaa !51
  %indvars.iv.next = add nuw nsw i64 %indvars.iv, 1
  %exitcond.not = icmp eq i64 %indvars.iv.next, %wide.trip.count
  br i1 %exitcond.not, label %._crit_edge, label %44, !llvm.loop !148
}